target datalayout = "e-m:e-p270:32:32-p271:32:32-p272:64:64-i64:64-i128:128-f80:128-n8:16:32:64-S128"
target triple = "x86_64-pc-linux-gnu"

%struct.varattrib_1b = type { i8, [0 x i8] }
%struct.anon = type { i32, [0 x i8] }
%struct.inet_struct = type { i8, i8, [16 x i8] }

@.str.1 = private unnamed_addr constant [10 x i8] c"network.c\00", align 1
@.str.3 = private unnamed_addr constant [32 x i8] c"could not format inet value: %m\00", align 1
@.str.4 = private unnamed_addr constant [4 x i8] c"/%u\00", align 1
@__func__.network_out = private unnamed_addr constant [12 x i8] c"network_out\00", align 1

; Function Attrs: nounwind uwtable
define internal ptr @network_out(ptr noundef %0, i1 noundef zeroext %1) #0 {
  %3 = alloca ptr, align 8
  %4 = alloca i8, align 1
  %5 = alloca [50 x i8], align 16
  %6 = alloca ptr, align 8
  %7 = alloca i32, align 4
  store ptr %0, ptr %3, align 8
  %8 = zext i1 %1 to i8
  store i8 %8, ptr %4, align 1
  call void @llvm.lifetime.start.p0(i64 50, ptr %5) #8
  call void @llvm.lifetime.start.p0(i64 8, ptr %6) #8
  call void @llvm.lifetime.start.p0(i64 4, ptr %7) #8
  %9 = load ptr, ptr %3, align 8
  %10 = getelementptr inbounds nuw %struct.varattrib_1b, ptr %9, i32 0, i32 0
  %11 = load i8, ptr %10, align 1
  %12 = zext i8 %11 to i32
  %13 = and i32 %12, 1
  %14 = icmp eq i32 %13, 1
  br i1 %14, label %15, label %19

15:                                               ; preds = %2
  %16 = load ptr, ptr %3, align 8
  %17 = getelementptr inbounds nuw %struct.varattrib_1b, ptr %16, i32 0, i32 1
  %18 = getelementptr inbounds [0 x i8], ptr %17, i64 0, i64 0
  br label %23

19:                                               ; preds = %2
  %20 = load ptr, ptr %3, align 8
  %21 = getelementptr inbounds nuw %struct.anon, ptr %20, i32 0, i32 1
  %22 = getelementptr inbounds [0 x i8], ptr %21, i64 0, i64 0
  br label %23

23:                                               ; preds = %19, %15
  %24 = phi ptr [ %18, %15 ], [ %22, %19 ]
  %25 = getelementptr inbounds nuw %struct.inet_struct, ptr %24, i32 0, i32 0
  %26 = load i8, ptr %25, align 1
  %27 = zext i8 %26 to i32
  %28 = load ptr, ptr %3, align 8
  %29 = getelementptr inbounds nuw %struct.varattrib_1b, ptr %28, i32 0, i32 0
  %30 = load i8, ptr %29, align 1
  %31 = zext i8 %30 to i32
  %32 = and i32 %31, 1
  %33 = icmp eq i32 %32, 1
  br i1 %33, label %34, label %38

34:                                               ; preds = %23
  %35 = load ptr, ptr %3, align 8
  %36 = getelementptr inbounds nuw %struct.varattrib_1b, ptr %35, i32 0, i32 1
  %37 = getelementptr inbounds [0 x i8], ptr %36, i64 0, i64 0
  br label %42

38:                                               ; preds = %23
  %39 = load ptr, ptr %3, align 8
  %40 = getelementptr inbounds nuw %struct.anon, ptr %39, i32 0, i32 1
  %41 = getelementptr inbounds [0 x i8], ptr %40, i64 0, i64 0
  br label %42

42:                                               ; preds = %38, %34
  %43 = phi ptr [ %37, %34 ], [ %41, %38 ]
  %44 = getelementptr inbounds nuw %struct.inet_struct, ptr %43, i32 0, i32 2
  %45 = getelementptr inbounds [16 x i8], ptr %44, i64 0, i64 0
  %46 = load ptr, ptr %3, align 8
  %47 = getelementptr inbounds nuw %struct.varattrib_1b, ptr %46, i32 0, i32 0
  %48 = load i8, ptr %47, align 1
  %49 = zext i8 %48 to i32
  %50 = and i32 %49, 1
  %51 = icmp eq i32 %50, 1
  br i1 %51, label %52, label %56

52:                                               ; preds = %42
  %53 = load ptr, ptr %3, align 8
  %54 = getelementptr inbounds nuw %struct.varattrib_1b, ptr %53, i32 0, i32 1
  %55 = getelementptr inbounds [0 x i8], ptr %54, i64 0, i64 0
  br label %60

56:                                               ; preds = %42
  %57 = load ptr, ptr %3, align 8
  %58 = getelementptr inbounds nuw %struct.anon, ptr %57, i32 0, i32 1
  %59 = getelementptr inbounds [0 x i8], ptr %58, i64 0, i64 0
  br label %60

60:                                               ; preds = %56, %52
  %61 = phi ptr [ %55, %52 ], [ %59, %56 ]
  %62 = getelementptr inbounds nuw %struct.inet_struct, ptr %61, i32 0, i32 1
  %63 = load i8, ptr %62, align 1
  %64 = zext i8 %63 to i32
  %65 = getelementptr inbounds [50 x i8], ptr %5, i64 0, i64 0
  %66 = call ptr @pg_inet_net_ntop(i32 noundef %27, ptr noundef %45, i32 noundef %64, ptr noundef %65, i64 noundef 50)
  store ptr %66, ptr %6, align 8
  %67 = load ptr, ptr %6, align 8
  %68 = icmp eq ptr %67, null
  br i1 %68, label %69, label %81

69:                                               ; preds = %60
  br label %70

70:                                               ; preds = %69
  br i1 true, label %71, label %73

71:                                               ; preds = %70
  %72 = call zeroext i1 @errstart_cold(i32 noundef 21, ptr noundef null) #10
  br i1 %72, label %75, label %78

73:                                               ; preds = %70
  %74 = call zeroext i1 @errstart(i32 noundef 21, ptr noundef null)
  br i1 %74, label %75, label %78

75:                                               ; preds = %73, %71
  %76 = call i32 @errcode(i32 noundef 50462850)
  %77 = call i32 (ptr, ...) @errmsg(ptr noundef @.str.3)
  call void @errfinish(ptr noundef @.str.1, i32 noundef 152, ptr noundef @__func__.network_out)
  br label %78

78:                                               ; preds = %75, %73, %71
  unreachable

79:                                               ; No predecessors!
  br label %80

80:                                               ; preds = %79
  br label %81

81:                                               ; preds = %80, %60
  %82 = load i8, ptr %4, align 1, !range !4, !noundef !5
  %83 = trunc i8 %82 to i1
  br i1 %83, label %84, label %119

84:                                               ; preds = %81
  %85 = getelementptr inbounds [50 x i8], ptr %5, i64 0, i64 0
  %86 = call ptr @strchr(ptr noundef %85, i32 noundef 47) #9
  %87 = icmp eq ptr %86, null
  br i1 %87, label %88, label %119

88:                                               ; preds = %84
  %89 = getelementptr inbounds [50 x i8], ptr %5, i64 0, i64 0
  %90 = call i64 @strlen(ptr noundef %89) #9
  %91 = trunc i64 %90 to i32
  store i32 %91, ptr %7, align 4
  %92 = getelementptr inbounds [50 x i8], ptr %5, i64 0, i64 0
  %93 = load i32, ptr %7, align 4
  %94 = sext i32 %93 to i64
  %95 = getelementptr inbounds i8, ptr %92, i64 %94
  %96 = load i32, ptr %7, align 4
  %97 = sext i32 %96 to i64
  %98 = sub i64 50, %97
  %99 = load ptr, ptr %3, align 8
  %100 = getelementptr inbounds nuw %struct.varattrib_1b, ptr %99, i32 0, i32 0
  %101 = load i8, ptr %100, align 1
  %102 = zext i8 %101 to i32
  %103 = and i32 %102, 1
  %104 = icmp eq i32 %103, 1
  br i1 %104, label %105, label %109

105:                                              ; preds = %88
  %106 = load ptr, ptr %3, align 8
  %107 = getelementptr inbounds nuw %struct.varattrib_1b, ptr %106, i32 0, i32 1
  %108 = getelementptr inbounds [0 x i8], ptr %107, i64 0, i64 0
  br label %113

109:                                              ; preds = %88
  %110 = load ptr, ptr %3, align 8
  %111 = getelementptr inbounds nuw %struct.anon, ptr %110, i32 0, i32 1
  %112 = getelementptr inbounds [0 x i8], ptr %111, i64 0, i64 0
  br label %113

113:                                              ; preds = %109, %105
  %114 = phi ptr [ %108, %105 ], [ %112, %109 ]
  %115 = getelementptr inbounds nuw %struct.inet_struct, ptr %114, i32 0, i32 1
  %116 = load i8, ptr %115, align 1
  %117 = zext i8 %116 to i32
  %118 = call i32 (ptr, i64, ptr, ...) @pg_snprintf(ptr noundef %95, i64 noundef %98, ptr noundef @.str.4, i32 noundef %117)
  br label %119

119:                                              ; preds = %113, %84, %81
  %120 = getelementptr inbounds [50 x i8], ptr %5, i64 0, i64 0
  %121 = call ptr @pstrdup(ptr noundef %120)
  call void @llvm.lifetime.end.p0(i64 4, ptr %7) #8
  call void @llvm.lifetime.end.p0(i64 8, ptr %6) #8
  call void @llvm.lifetime.end.p0(i64 50, ptr %5) #8
  ret ptr %121
}