; Function Attrs: nounwind uwtable
define internal fastcc ptr @network_out(ptr noundef %0, i1 noundef zeroext %1) unnamed_addr #0 {
  %3 = alloca [50 x i8], align 16
  call void @llvm.lifetime.start.p0(i64 50, ptr nonnull %3) #14
  %4 = load i8, ptr %0, align 1
  %5 = and i8 %4, 1
  %.not = icmp eq i8 %5, 0
  %6 = getelementptr inbounds nuw i8, ptr %0, i64 1
  %7 = getelementptr inbounds nuw i8, ptr %0, i64 4
  %8 = select i1 %.not, ptr %7, ptr %6
  %9 = load i8, ptr %8, align 1
  %10 = zext i8 %9 to i32
  %11 = getelementptr inbounds nuw i8, ptr %8, i64 2
  %12 = getelementptr inbounds nuw i8, ptr %8, i64 1
  %13 = load i8, ptr %12, align 1
  %14 = zext i8 %13 to i32
  %15 = call ptr @pg_inet_net_ntop(i32 noundef %10, ptr noundef nonnull %11, i32 noundef %14, ptr noundef nonnull %3, i64 noundef 50) #14
  %16 = icmp eq ptr %15, null
  br i1 %16, label %17, label %21

17:                                               ; preds = %2
  %18 = call zeroext i1 @errstart_cold(i32 noundef 21, ptr noundef null) #16
  call void @llvm.assume(i1 %18)
  %19 = call i32 @errcode(i32 noundef 50462850) #14
  %20 = call i32 (ptr, ...) @errmsg(ptr noundef nonnull @.str.3) #14
  call void @errfinish(ptr noundef nonnull @.str.1, i32 noundef 152, ptr noundef nonnull @__func__.network_out) #14
  unreachable

21:                                               ; preds = %2
  br i1 %1, label %22, label %37

22:                                               ; preds = %21
  %23 = call ptr @strchr(ptr noundef nonnull dereferenceable(1) %3, i32 noundef 47) #15
  %24 = icmp eq ptr %23, null
  br i1 %24, label %25, label %37

25:                                               ; preds = %22
  %26 = call i64 @strlen(ptr noundef nonnull dereferenceable(1) %3) #15
  %sext = shl i64 %26, 32
  %27 = ashr exact i64 %sext, 32
  %28 = getelementptr inbounds i8, ptr %3, i64 %27
  %29 = sub nsw i64 50, %27
  %30 = load i8, ptr %0, align 1
  %31 = and i8 %30, 1
  %.not15 = icmp eq i8 %31, 0
  %32 = select i1 %.not15, ptr %7, ptr %6
  %33 = getelementptr inbounds nuw i8, ptr %32, i64 1
  %34 = load i8, ptr %33, align 1
  %35 = zext i8 %34 to i32
  %36 = call i32 (ptr, i64, ptr, ...) @pg_snprintf(ptr noundef nonnull %28, i64 noundef %29, ptr noundef nonnull @.str.4, i32 noundef %35) #14
  br label %37

37:                                               ; preds = %25, %22, %21
  %38 = call ptr @pstrdup(ptr noundef nonnull %3) #14
  call void @llvm.lifetime.end.p0(i64 50, ptr nonnull %3) #14
  ret ptr %38
}